target datalayout = "e-m:e-p270:32:32-p271:32:32-p272:64:64-i64:64-i128:128-f80:128-n8:16:32:64-S128"
target triple = "x86_64-pc-linux-gnu"

%"class.BCEscapeAnalyzer::ArgumentMap" = type { i32 }
%class.BCEscapeAnalyzer = type <{ ptr, i8, [7 x i8], ptr, ptr, i32, [4 x i8], %class.VectorSet, %class.VectorSet, %class.VectorSet, ptr, i8, i8, i8, i8, [4 x i8], %class.GrowableArray, ptr, ptr, i32, [4 x i8] }>
%class.VectorSet = type { i32, ptr, i32, ptr }
%class.GrowableArray = type { %class.GrowableArrayWithAllocator, %class.GrowableArrayMetadata }
%class.GrowableArrayWithAllocator = type { %class.GrowableArrayView }
%class.GrowableArrayView = type { %class.GrowableArrayBase, ptr }
%class.GrowableArrayBase = type { i32, i32 }
%class.GrowableArrayMetadata = type { i64 }

; Function Attrs: mustprogress nounwind uwtable
define linkonce_odr hidden noundef i32 @_ZNK16BCEscapeAnalyzer11ArgumentMap10int_to_bitEj(ptr noundef nonnull align 4 dereferenceable(4) %0, i32 noundef %1) #1 comdat align 2 {
  %3 = alloca ptr, align 8
  %4 = alloca i32, align 4
  store ptr %0, ptr %3, align 8
  store i32 %1, ptr %4, align 4
  %5 = load i32, ptr %4, align 4
  %6 = icmp ugt i32 %5, 29
  br i1 %6, label %7, label %8

7:                                                ; preds = %2
  store i32 29, ptr %4, align 4
  br label %8

8:                                                ; preds = %7, %2
  %9 = load i32, ptr %4, align 4
  %10 = add i32 %9, 2
  %11 = shl i32 1, %10
  ret i32 %11
}

; Function Attrs: mustprogress nounwind uwtable
define linkonce_odr hidden noundef zeroext i1 @_ZNK9VectorSet4testEj(ptr noundef nonnull align 8 dereferenceable(32) %0, i32 noundef %1) #1 comdat align 2 {
  %3 = alloca i1, align 1
  %4 = alloca ptr, align 8
  %5 = alloca i32, align 4
  %6 = alloca i32, align 4
  %7 = alloca i32, align 4
  store ptr %0, ptr %4, align 8
  store i32 %1, ptr %5, align 4
  %8 = load ptr, ptr %4, align 8
  %9 = load i32, ptr %5, align 4
  %10 = lshr i32 %9, 5
  store i32 %10, ptr %6, align 4
  %11 = load i32, ptr %6, align 4
  %12 = getelementptr inbounds %class.VectorSet, ptr %8, i32 0, i32 0
  %13 = load i32, ptr %12, align 8
  %14 = icmp uge i32 %11, %13
  br i1 %14, label %15, label %16

15:                                               ; preds = %2
  store i1 false, ptr %3, align 1
  br label %29

16:                                               ; preds = %2
  %17 = load i32, ptr %5, align 4
  %18 = and i32 %17, 31
  %19 = shl i32 1, %18
  store i32 %19, ptr %7, align 4
  %20 = getelementptr inbounds %class.VectorSet, ptr %8, i32 0, i32 1
  %21 = load ptr, ptr %20, align 8
  %22 = load i32, ptr %6, align 4
  %23 = zext i32 %22 to i64
  %24 = getelementptr inbounds i32, ptr %21, i64 %23
  %25 = load i32, ptr %24, align 4
  %26 = load i32, ptr %7, align 4
  %27 = and i32 %25, %26
  %28 = icmp ne i32 %27, 0
  store i1 %28, ptr %3, align 1
  br label %29

29:                                               ; preds = %16, %15
  %30 = load i1, ptr %3, align 1
  ret i1 %30
}

; Function Attrs: mustprogress nounwind uwtable
define linkonce_odr hidden void @_ZN9VectorSet6removeEj(ptr noundef nonnull align 8 dereferenceable(32) %0, i32 noundef %1) #1 comdat align 2 {
  %3 = alloca ptr, align 8
  %4 = alloca i32, align 4
  %5 = alloca i32, align 4
  %6 = alloca i32, align 4
  store ptr %0, ptr %3, align 8
  store i32 %1, ptr %4, align 4
  %7 = load ptr, ptr %3, align 8
  %8 = load i32, ptr %4, align 4
  %9 = lshr i32 %8, 5
  store i32 %9, ptr %5, align 4
  %10 = load i32, ptr %5, align 4
  %11 = getelementptr inbounds %class.VectorSet, ptr %7, i32 0, i32 0
  %12 = load i32, ptr %11, align 8
  %13 = icmp uge i32 %10, %12
  br i1 %13, label %14, label %15

14:                                               ; preds = %2
  br label %28

15:                                               ; preds = %2
  %16 = load i32, ptr %4, align 4
  %17 = and i32 %16, 31
  %18 = shl i32 1, %17
  store i32 %18, ptr %6, align 4
  %19 = load i32, ptr %6, align 4
  %20 = xor i32 %19, -1
  %21 = getelementptr inbounds %class.VectorSet, ptr %7, i32 0, i32 1
  %22 = load ptr, ptr %21, align 8
  %23 = load i32, ptr %5, align 4
  %24 = zext i32 %23 to i64
  %25 = getelementptr inbounds i32, ptr %22, i64 %24
  %26 = load i32, ptr %25, align 4
  %27 = and i32 %26, %20
  store i32 %27, ptr %25, align 4
  br label %28

28:                                               ; preds = %15, %14
  ret void
}

; Function Attrs: mustprogress nounwind uwtable
define linkonce_odr hidden noundef zeroext i1 @_ZNK16BCEscapeAnalyzer11ArgumentMap8containsEj(ptr noundef nonnull align 4 dereferenceable(4) %0, i32 noundef %1) #1 comdat align 2 {
  %3 = alloca ptr, align 8
  %4 = alloca i32, align 4
  store ptr %0, ptr %3, align 8
  store i32 %1, ptr %4, align 4
  %5 = load ptr, ptr %3, align 8
  %6 = getelementptr inbounds %"class.BCEscapeAnalyzer::ArgumentMap", ptr %5, i32 0, i32 0
  %7 = load i32, ptr %6, align 4
  %8 = load i32, ptr %4, align 4
  %9 = call noundef i32 @_ZNK16BCEscapeAnalyzer11ArgumentMap10int_to_bitEj(ptr noundef nonnull align 4 dereferenceable(4) %5, i32 noundef %8)
  %10 = and i32 %7, %9
  %11 = icmp ne i32 %10, 0
  ret i1 %11
}

; Function Attrs: mustprogress nounwind uwtable
define hidden noundef zeroext i1 @_ZN16BCEscapeAnalyzer11returns_allENS_11ArgumentMapE(ptr noundef nonnull align 8 dereferenceable(196) %0, i32 %1) #1 align 2 {
  %3 = alloca i1, align 1
  %4 = alloca %"class.BCEscapeAnalyzer::ArgumentMap", align 4
  %5 = alloca ptr, align 8
  %6 = alloca i32, align 4
  %7 = getelementptr inbounds %"class.BCEscapeAnalyzer::ArgumentMap", ptr %4, i32 0, i32 0
  store i32 %1, ptr %7, align 4
  store ptr %0, ptr %5, align 8
  %8 = load ptr, ptr %5, align 8
  store i32 0, ptr %6, align 4
  br label %9

9:                                                ; preds = %23, %2
  %10 = load i32, ptr %6, align 4
  %11 = getelementptr inbounds %class.BCEscapeAnalyzer, ptr %8, i32 0, i32 5
  %12 = load i32, ptr %11, align 8
  %13 = icmp slt i32 %10, %12
  br i1 %13, label %14, label %26

14:                                               ; preds = %9
  %15 = load i32, ptr %6, align 4
  %16 = call noundef zeroext i1 @_ZNK16BCEscapeAnalyzer11ArgumentMap8containsEj(ptr noundef nonnull align 4 dereferenceable(4) %4, i32 noundef %15)
  br i1 %16, label %17, label %22

17:                                               ; preds = %14
  %18 = getelementptr inbounds %class.BCEscapeAnalyzer, ptr %8, i32 0, i32 9
  %19 = load i32, ptr %6, align 4
  %20 = call noundef zeroext i1 @_ZNK9VectorSet4testEj(ptr noundef nonnull align 8 dereferenceable(32) %18, i32 noundef %19)
  br i1 %20, label %22, label %21

21:                                               ; preds = %17
  store i1 false, ptr %3, align 1
  br label %27

22:                                               ; preds = %17, %14
  br label %23

23:                                               ; preds = %22
  %24 = load i32, ptr %6, align 4
  %25 = add nsw i32 %24, 1
  store i32 %25, ptr %6, align 4
  br label %9, !llvm.loop !10

26:                                               ; preds = %9
  store i1 true, ptr %3, align 1
  br label %27

27:                                               ; preds = %26, %21
  %28 = load i1, ptr %3, align 1
  ret i1 %28
}

; Function Attrs: mustprogress nounwind uwtable
define linkonce_odr hidden noundef zeroext i1 @_ZNK16BCEscapeAnalyzer11ArgumentMap13contains_varsEv(ptr noundef nonnull align 4 dereferenceable(4) %0) #1 comdat align 2 {
  %2 = alloca ptr, align 8
  store ptr %0, ptr %2, align 8
  %3 = load ptr, ptr %2, align 8
  %4 = getelementptr inbounds %"class.BCEscapeAnalyzer::ArgumentMap", ptr %3, i32 0, i32 0
  %5 = load i32, ptr %4, align 4
  %6 = and i32 %5, 2147483644
  %7 = icmp ne i32 %6, 0
  ret i1 %7
}

; Function Attrs: mustprogress nounwind uwtable
define linkonce_odr hidden noundef zeroext i1 @_ZNK16BCEscapeAnalyzer11ArgumentMap16contains_unknownEv(ptr noundef nonnull align 4 dereferenceable(4) %0) #1 comdat align 2 {
  %2 = alloca ptr, align 8
  store ptr %0, ptr %2, align 8
  %3 = load ptr, ptr %2, align 8
  %4 = getelementptr inbounds %"class.BCEscapeAnalyzer::ArgumentMap", ptr %3, i32 0, i32 0
  %5 = load i32, ptr %4, align 4
  %6 = and i32 %5, 2
  %7 = icmp ne i32 %6, 0
  ret i1 %7
}

; Function Attrs: mustprogress nounwind uwtable
define linkonce_odr hidden noundef zeroext i1 @_ZNK16BCEscapeAnalyzer11ArgumentMap8is_emptyEv(ptr noundef nonnull align 4 dereferenceable(4) %0) #1 comdat align 2 {
  %2 = alloca ptr, align 8
  store ptr %0, ptr %2, align 8
  %3 = load ptr, ptr %2, align 8
  %4 = getelementptr inbounds %"class.BCEscapeAnalyzer::ArgumentMap", ptr %3, i32 0, i32 0
  %5 = load i32, ptr %4, align 4
  %6 = icmp eq i32 %5, 0
  ret i1 %6
}

; Function Attrs: mustprogress nounwind uwtable
define linkonce_odr hidden noundef zeroext i1 @_ZNK16BCEscapeAnalyzer11ArgumentMap18contains_allocatedEv(ptr noundef nonnull align 4 dereferenceable(4) %0) #1 comdat align 2 {
  %2 = alloca ptr, align 8
  store ptr %0, ptr %2, align 8
  %3 = load ptr, ptr %2, align 8
  %4 = getelementptr inbounds %"class.BCEscapeAnalyzer::ArgumentMap", ptr %3, i32 0, i32 0
  %5 = load i32, ptr %4, align 4
  %6 = and i32 %5, 1
  %7 = icmp ne i32 %6, 0
  ret i1 %7
}

; Function Attrs: mustprogress nounwind uwtable
define hidden void @_ZN16BCEscapeAnalyzer10clear_bitsENS_11ArgumentMapER9VectorSet(ptr noundef nonnull align 8 dereferenceable(196) %0, i32 %1, ptr noundef nonnull align 8 dereferenceable(32) %2) #1 align 2 {
  %4 = alloca %"class.BCEscapeAnalyzer::ArgumentMap", align 4
  %5 = alloca ptr, align 8
  %6 = alloca ptr, align 8
  %7 = alloca i32, align 4
  %8 = getelementptr inbounds %"class.BCEscapeAnalyzer::ArgumentMap", ptr %4, i32 0, i32 0
  store i32 %1, ptr %8, align 4
  store ptr %0, ptr %5, align 8
  store ptr %2, ptr %6, align 8
  %9 = load ptr, ptr %5, align 8
  store i32 0, ptr %7, align 4
  br label %10

10:                                               ; preds = %22, %3
  %11 = load i32, ptr %7, align 4
  %12 = getelementptr inbounds %class.BCEscapeAnalyzer, ptr %9, i32 0, i32 5
  %13 = load i32, ptr %12, align 8
  %14 = icmp slt i32 %11, %13
  br i1 %14, label %15, label %25

15:                                               ; preds = %10
  %16 = load i32, ptr %7, align 4
  %17 = call noundef zeroext i1 @_ZNK16BCEscapeAnalyzer11ArgumentMap8containsEj(ptr noundef nonnull align 4 dereferenceable(4) %4, i32 noundef %16)
  br i1 %17, label %18, label %21

18:                                               ; preds = %15
  %19 = load ptr, ptr %6, align 8
  %20 = load i32, ptr %7, align 4
  call void @_ZN9VectorSet6removeEj(ptr noundef nonnull align 8 dereferenceable(32) %19, i32 noundef %20)
  br label %21

21:                                               ; preds = %18, %15
  br label %22

22:                                               ; preds = %21
  %23 = load i32, ptr %7, align 4
  %24 = add nsw i32 %23, 1
  store i32 %24, ptr %7, align 4
  br label %10, !llvm.loop !11

25:                                               ; preds = %10
  ret void
}

; Function Attrs: mustprogress nounwind uwtable
define hidden void @_ZN16BCEscapeAnalyzer17set_global_escapeENS_11ArgumentMapEb(ptr noundef nonnull align 8 dereferenceable(196) %0, i32 %1, i1 noundef zeroext %2) #1 align 2 {
  %4 = alloca %"class.BCEscapeAnalyzer::ArgumentMap", align 4
  %5 = alloca ptr, align 8
  %6 = alloca i8, align 1
  %7 = alloca %"class.BCEscapeAnalyzer::ArgumentMap", align 4
  %8 = alloca %"class.BCEscapeAnalyzer::ArgumentMap", align 4
  %9 = alloca %"class.BCEscapeAnalyzer::ArgumentMap", align 4
  %10 = getelementptr inbounds %"class.BCEscapeAnalyzer::ArgumentMap", ptr %4, i32 0, i32 0
  store i32 %1, ptr %10, align 4
  store ptr %0, ptr %5, align 8
  %11 = zext i1 %2 to i8
  store i8 %11, ptr %6, align 1
  %12 = load ptr, ptr %5, align 8
  call void @llvm.memcpy.p0.p0.i64(ptr align 4 %7, ptr align 4 %4, i64 4, i1 false)
  %13 = getelementptr inbounds %class.BCEscapeAnalyzer, ptr %12, i32 0, i32 7
  %14 = getelementptr inbounds %"class.BCEscapeAnalyzer::ArgumentMap", ptr %7, i32 0, i32 0
  %15 = load i32, ptr %14, align 4
  call void @_ZN16BCEscapeAnalyzer10clear_bitsENS_11ArgumentMapER9VectorSet(ptr noundef nonnull align 8 dereferenceable(196) %12, i32 %15, ptr noundef nonnull align 8 dereferenceable(32) %13)
  call void @llvm.memcpy.p0.p0.i64(ptr align 4 %8, ptr align 4 %4, i64 4, i1 false)
  %16 = getelementptr inbounds %class.BCEscapeAnalyzer, ptr %12, i32 0, i32 8
  %17 = getelementptr inbounds %"class.BCEscapeAnalyzer::ArgumentMap", ptr %8, i32 0, i32 0
  %18 = load i32, ptr %17, align 4
  call void @_ZN16BCEscapeAnalyzer10clear_bitsENS_11ArgumentMapER9VectorSet(ptr noundef nonnull align 8 dereferenceable(196) %12, i32 %18, ptr noundef nonnull align 8 dereferenceable(32) %16)
  %19 = call noundef zeroext i1 @_ZNK16BCEscapeAnalyzer11ArgumentMap18contains_allocatedEv(ptr noundef nonnull align 4 dereferenceable(4) %4)
  br i1 %19, label %20, label %22

20:                                               ; preds = %3
  %21 = getelementptr inbounds %class.BCEscapeAnalyzer, ptr %12, i32 0, i32 13
  store i8 1, ptr %21, align 2
  br label %22

22:                                               ; preds = %20, %3
  %23 = load i8, ptr %6, align 1
  %24 = trunc i8 %23 to i1
  br i1 %24, label %25, label %52

25:                                               ; preds = %22
  %26 = call noundef zeroext i1 @_ZNK16BCEscapeAnalyzer11ArgumentMap8is_emptyEv(ptr noundef nonnull align 4 dereferenceable(4) %4)
  br i1 %26, label %52, label %27

27:                                               ; preds = %25
  %28 = call noundef zeroext i1 @_ZNK16BCEscapeAnalyzer11ArgumentMap16contains_unknownEv(ptr noundef nonnull align 4 dereferenceable(4) %4)
  br i1 %28, label %31, label %29

29:                                               ; preds = %27
  %30 = call noundef zeroext i1 @_ZNK16BCEscapeAnalyzer11ArgumentMap18contains_allocatedEv(ptr noundef nonnull align 4 dereferenceable(4) %4)
  br i1 %30, label %31, label %33

31:                                               ; preds = %29, %27
  %32 = getelementptr inbounds %class.BCEscapeAnalyzer, ptr %12, i32 0, i32 11
  store i8 0, ptr %32, align 8
  br label %33

33:                                               ; preds = %31, %29
  %34 = call noundef zeroext i1 @_ZNK16BCEscapeAnalyzer11ArgumentMap16contains_unknownEv(ptr noundef nonnull align 4 dereferenceable(4) %4)
  br i1 %34, label %37, label %35

35:                                               ; preds = %33
  %36 = call noundef zeroext i1 @_ZNK16BCEscapeAnalyzer11ArgumentMap13contains_varsEv(ptr noundef nonnull align 4 dereferenceable(4) %4)
  br i1 %36, label %37, label %39

37:                                               ; preds = %35, %33
  %38 = getelementptr inbounds %class.BCEscapeAnalyzer, ptr %12, i32 0, i32 12
  store i8 0, ptr %38, align 1
  br label %39

39:                                               ; preds = %37, %35
  %40 = getelementptr inbounds %class.BCEscapeAnalyzer, ptr %12, i32 0, i32 11
  %41 = load i8, ptr %40, align 8
  %42 = trunc i8 %41 to i1
  br i1 %42, label %43, label %51

43:                                               ; preds = %39
  %44 = call noundef zeroext i1 @_ZNK16BCEscapeAnalyzer11ArgumentMap13contains_varsEv(ptr noundef nonnull align 4 dereferenceable(4) %4)
  br i1 %44, label %45, label %51

45:                                               ; preds = %43
  call void @llvm.memcpy.p0.p0.i64(ptr align 4 %9, ptr align 4 %4, i64 4, i1 false)
  %46 = getelementptr inbounds %"class.BCEscapeAnalyzer::ArgumentMap", ptr %9, i32 0, i32 0
  %47 = load i32, ptr %46, align 4
  %48 = call noundef zeroext i1 @_ZN16BCEscapeAnalyzer11returns_allENS_11ArgumentMapE(ptr noundef nonnull align 8 dereferenceable(196) %12, i32 %47)
  br i1 %48, label %51, label %49

49:                                               ; preds = %45
  %50 = getelementptr inbounds %class.BCEscapeAnalyzer, ptr %12, i32 0, i32 11
  store i8 0, ptr %50, align 8
  br label %51

51:                                               ; preds = %49, %45, %43, %39
  br label %52

52:                                               ; preds = %51, %25, %22
  ret void
}