; Function Attrs: mustprogress nofree norecurse nosync nounwind memory(readwrite, inaccessiblemem: none) uwtable
define hidden void @_ZN16BCEscapeAnalyzer17set_global_escapeENS_11ArgumentMapEb(ptr nocapture noundef nonnull align 8 dereferenceable(196) %0, i32 %1, i1 noundef zeroext %2) local_unnamed_addr #3 align 2 {
  %4 = getelementptr inbounds i8, ptr %0, i64 40
  %5 = getelementptr inbounds i8, ptr %0, i64 32
  %6 = load i32, ptr %5, align 8
  %7 = icmp sgt i32 %6, 0
  br i1 %7, label %.lr.ph.i, label %_ZN16BCEscapeAnalyzer10clear_bitsENS_11ArgumentMapER9VectorSet.exit10

.lr.ph.i:                                         ; preds = %3
  %8 = getelementptr inbounds i8, ptr %0, i64 48
  br label %9

9:                                                ; preds = %_ZN9VectorSet6removeEj.exit.i, %.lr.ph.i
  %10 = phi i32 [ %6, %.lr.ph.i ], [ %.pr, %_ZN9VectorSet6removeEj.exit.i ]
  %.05.i = phi i32 [ 0, %.lr.ph.i ], [ %25, %_ZN9VectorSet6removeEj.exit.i ]
  %spec.store.select.i.i.i = tail call i32 @llvm.umin.i32(i32 %.05.i, i32 29)
  %11 = shl nuw i32 4, %spec.store.select.i.i.i
  %12 = and i32 %11, %1
  %.not.i = icmp eq i32 %12, 0
  br i1 %.not.i, label %_ZN9VectorSet6removeEj.exit.i, label %13

13:                                               ; preds = %9
  %14 = lshr i32 %.05.i, 5
  %15 = load i32, ptr %4, align 8
  %.not.i.i = icmp ult i32 %14, %15
  br i1 %.not.i.i, label %16, label %_ZN9VectorSet6removeEj.exit.i

16:                                               ; preds = %13
  %17 = and i32 %.05.i, 31
  %18 = shl nuw i32 1, %17
  %19 = xor i32 %18, -1
  %20 = load ptr, ptr %8, align 8
  %21 = zext nneg i32 %14 to i64
  %22 = getelementptr inbounds i32, ptr %20, i64 %21
  %23 = load i32, ptr %22, align 4
  %24 = and i32 %23, %19
  store i32 %24, ptr %22, align 4
  %.pre.i = load i32, ptr %5, align 8
  br label %_ZN9VectorSet6removeEj.exit.i

_ZN9VectorSet6removeEj.exit.i:                    ; preds = %16, %13, %9
  %.pr = phi i32 [ %.pre.i, %16 ], [ %10, %13 ], [ %10, %9 ]
  %25 = add nuw nsw i32 %.05.i, 1
  %26 = icmp slt i32 %25, %.pr
  br i1 %26, label %9, label %_ZN16BCEscapeAnalyzer10clear_bitsENS_11ArgumentMapER9VectorSet.exit, !llvm.loop !11

_ZN16BCEscapeAnalyzer10clear_bitsENS_11ArgumentMapER9VectorSet.exit: ; preds = %_ZN9VectorSet6removeEj.exit.i
  %27 = getelementptr inbounds i8, ptr %0, i64 72
  %28 = icmp sgt i32 %.pr, 0
  br i1 %28, label %.lr.ph.i3, label %_ZN16BCEscapeAnalyzer10clear_bitsENS_11ArgumentMapER9VectorSet.exit10

.lr.ph.i3:                                        ; preds = %_ZN16BCEscapeAnalyzer10clear_bitsENS_11ArgumentMapER9VectorSet.exit
  %29 = getelementptr inbounds i8, ptr %0, i64 80
  br label %30

30:                                               ; preds = %_ZN9VectorSet6removeEj.exit.i8, %.lr.ph.i3
  %31 = phi i32 [ %.pr, %.lr.ph.i3 ], [ %46, %_ZN9VectorSet6removeEj.exit.i8 ]
  %.05.i4 = phi i32 [ 0, %.lr.ph.i3 ], [ %47, %_ZN9VectorSet6removeEj.exit.i8 ]
  %spec.store.select.i.i.i5 = tail call i32 @llvm.umin.i32(i32 %.05.i4, i32 29)
  %32 = shl nuw i32 4, %spec.store.select.i.i.i5
  %33 = and i32 %32, %1
  %.not.i6 = icmp eq i32 %33, 0
  br i1 %.not.i6, label %_ZN9VectorSet6removeEj.exit.i8, label %34

34:                                               ; preds = %30
  %35 = lshr i32 %.05.i4, 5
  %36 = load i32, ptr %27, align 8
  %.not.i.i7 = icmp ult i32 %35, %36
  br i1 %.not.i.i7, label %37, label %_ZN9VectorSet6removeEj.exit.i8

37:                                               ; preds = %34
  %38 = and i32 %.05.i4, 31
  %39 = shl nuw i32 1, %38
  %40 = xor i32 %39, -1
  %41 = load ptr, ptr %29, align 8
  %42 = zext nneg i32 %35 to i64
  %43 = getelementptr inbounds i32, ptr %41, i64 %42
  %44 = load i32, ptr %43, align 4
  %45 = and i32 %44, %40
  store i32 %45, ptr %43, align 4
  %.pre.i9 = load i32, ptr %5, align 8
  br label %_ZN9VectorSet6removeEj.exit.i8

_ZN9VectorSet6removeEj.exit.i8:                   ; preds = %37, %34, %30
  %46 = phi i32 [ %.pre.i9, %37 ], [ %31, %34 ], [ %31, %30 ]
  %47 = add nuw nsw i32 %.05.i4, 1
  %48 = icmp slt i32 %47, %46
  br i1 %48, label %30, label %_ZN16BCEscapeAnalyzer10clear_bitsENS_11ArgumentMapER9VectorSet.exit10, !llvm.loop !11

_ZN16BCEscapeAnalyzer10clear_bitsENS_11ArgumentMapER9VectorSet.exit10: ; preds = %_ZN9VectorSet6removeEj.exit.i8, %3, %_ZN16BCEscapeAnalyzer10clear_bitsENS_11ArgumentMapER9VectorSet.exit
  %49 = phi i32 [ %6, %3 ], [ %.pr, %_ZN16BCEscapeAnalyzer10clear_bitsENS_11ArgumentMapER9VectorSet.exit ], [ %46, %_ZN9VectorSet6removeEj.exit.i8 ]
  %50 = and i32 %1, 1
  %.not27 = icmp eq i32 %50, 0
  br i1 %.not27, label %53, label %51

51:                                               ; preds = %_ZN16BCEscapeAnalyzer10clear_bitsENS_11ArgumentMapER9VectorSet.exit10
  %52 = getelementptr inbounds i8, ptr %0, i64 146
  store i8 1, ptr %52, align 2
  br label %53

53:                                               ; preds = %51, %_ZN16BCEscapeAnalyzer10clear_bitsENS_11ArgumentMapER9VectorSet.exit10
  %54 = icmp ne i32 %1, 0
  %or.cond.not = select i1 %2, i1 %54, i1 false
  br i1 %or.cond.not, label %55, label %_ZN16BCEscapeAnalyzer11returns_allENS_11ArgumentMapE.exit.thread

55:                                               ; preds = %53
  %56 = and i32 %1, 2
  %.not = icmp eq i32 %56, 0
  br i1 %.not, label %59, label %.thread23

.thread23:                                        ; preds = %55
  %57 = getelementptr inbounds i8, ptr %0, i64 144
  store i8 0, ptr %57, align 8
  %.pre30 = and i32 %1, 2147483644
  %58 = icmp ne i32 %.pre30, 0
  br label %63

59:                                               ; preds = %55
  br i1 %.not27, label %.thread, label %60

60:                                               ; preds = %59
  %61 = getelementptr inbounds i8, ptr %0, i64 144
  store i8 0, ptr %61, align 8
  br label %.thread

.thread:                                          ; preds = %59, %60
  %62 = and i32 %1, 2147483644
  %.not29 = icmp eq i32 %62, 0
  br i1 %.not29, label %_ZN16BCEscapeAnalyzer11returns_allENS_11ArgumentMapE.exit.thread, label %63

63:                                               ; preds = %.thread, %.thread23
  %.pre.pre-phi = phi i1 [ %58, %.thread23 ], [ true, %.thread ]
  %64 = getelementptr inbounds i8, ptr %0, i64 145
  store i8 0, ptr %64, align 1
  %65 = getelementptr inbounds i8, ptr %0, i64 144
  %66 = load i8, ptr %65, align 8
  %67 = trunc i8 %66 to i1
  %or.cond26 = select i1 %67, i1 %.pre.pre-phi, i1 false
  %68 = icmp sgt i32 %49, 0
  %or.cond.not35 = and i1 %68, %or.cond26
  br i1 %or.cond.not35, label %.lr.ph.i11, label %_ZN16BCEscapeAnalyzer11returns_allENS_11ArgumentMapE.exit.thread

.lr.ph.i11:                                       ; preds = %63
  %69 = getelementptr inbounds i8, ptr %0, i64 104
  %70 = load i32, ptr %69, align 8
  %71 = getelementptr inbounds i8, ptr %0, i64 112
  %72 = load ptr, ptr %71, align 8
  br label %73

73:                                               ; preds = %85, %.lr.ph.i11
  %74 = phi i1 [ false, %.lr.ph.i11 ], [ %87, %85 ]
  %.08.i = phi i32 [ 0, %.lr.ph.i11 ], [ %86, %85 ]
  %spec.store.select.i.i.i12 = tail call i32 @llvm.umin.i32(i32 %.08.i, i32 29)
  %75 = shl nuw i32 4, %spec.store.select.i.i.i12
  %76 = and i32 %75, %1
  %.not.i13 = icmp eq i32 %76, 0
  br i1 %.not.i13, label %85, label %77

77:                                               ; preds = %73
  %78 = lshr i32 %.08.i, 5
  %.not.i.i14 = icmp ult i32 %78, %70
  br i1 %.not.i.i14, label %_ZNK9VectorSet4testEj.exit.i, label %_ZN16BCEscapeAnalyzer11returns_allENS_11ArgumentMapE.exit

_ZNK9VectorSet4testEj.exit.i:                     ; preds = %77
  %79 = and i32 %.08.i, 31
  %80 = shl nuw i32 1, %79
  %81 = zext nneg i32 %78 to i64
  %82 = getelementptr inbounds i32, ptr %72, i64 %81
  %83 = load i32, ptr %82, align 4
  %84 = and i32 %83, %80
  %.not7.i = icmp eq i32 %84, 0
  br i1 %.not7.i, label %_ZN16BCEscapeAnalyzer11returns_allENS_11ArgumentMapE.exit, label %85

85:                                               ; preds = %_ZNK9VectorSet4testEj.exit.i, %73
  %86 = add nuw nsw i32 %.08.i, 1
  %87 = icmp sge i32 %86, %49
  %exitcond.i = icmp eq i32 %86, %49
  br i1 %exitcond.i, label %_ZN16BCEscapeAnalyzer11returns_allENS_11ArgumentMapE.exit, label %73, !llvm.loop !10

_ZN16BCEscapeAnalyzer11returns_allENS_11ArgumentMapE.exit: ; preds = %77, %_ZNK9VectorSet4testEj.exit.i, %85
  %.lcssa.i = phi i1 [ %74, %77 ], [ %87, %85 ], [ %74, %_ZNK9VectorSet4testEj.exit.i ]
  br i1 %.lcssa.i, label %_ZN16BCEscapeAnalyzer11returns_allENS_11ArgumentMapE.exit.thread, label %88

88:                                               ; preds = %_ZN16BCEscapeAnalyzer11returns_allENS_11ArgumentMapE.exit
  store i8 0, ptr %65, align 8
  br label %_ZN16BCEscapeAnalyzer11returns_allENS_11ArgumentMapE.exit.thread

_ZN16BCEscapeAnalyzer11returns_allENS_11ArgumentMapE.exit.thread: ; preds = %.thread, %63, %_ZN16BCEscapeAnalyzer11returns_allENS_11ArgumentMapE.exit, %88, %53
  ret void
}